target datalayout = "e-m:e-p270:32:32-p271:32:32-p272:64:64-i64:64-i128:128-f80:128-n8:16:32:64-S128"
target triple = "x86_64-pc-linux-gnu"

@stderr = external global ptr, align 8
@.str.62 = private unnamed_addr constant [63 x i8] c"fstMmap() assigned to %s failed: errno: %d, file %s, line %d.\0A\00", align 1
@.str.63 = private unnamed_addr constant [4 x i8] c"Why\00", align 1

; Function Attrs: mustprogress uwtable
define internal void @_ZL19fstWriterMmapSanityPvPKciS1_(ptr noundef %0, ptr noundef %1, i32 noundef %2, ptr noundef %3) #0 {
  %5 = alloca ptr, align 8
  %6 = alloca ptr, align 8
  %7 = alloca i32, align 4
  %8 = alloca ptr, align 8
  store ptr %0, ptr %5, align 8, !tbaa !50
  store ptr %1, ptr %6, align 8, !tbaa !6
  store i32 %2, ptr %7, align 4, !tbaa !11
  store ptr %3, ptr %8, align 8, !tbaa !6
  %9 = load ptr, ptr %5, align 8, !tbaa !50
  %10 = icmp eq ptr %9, null
  br i1 %10, label %14, label %11

11:                                               ; preds = %4
  %12 = load ptr, ptr %5, align 8, !tbaa !50
  %13 = icmp eq ptr %12, inttoptr (i64 -1 to ptr)
  br i1 %13, label %14, label %22

14:                                               ; preds = %11, %4
  %15 = load ptr, ptr @stderr, align 8, !tbaa !33
  %16 = load ptr, ptr %8, align 8, !tbaa !6
  %17 = call ptr @__errno_location() #19
  %18 = load i32, ptr %17, align 4, !tbaa !11
  %19 = load ptr, ptr %6, align 8, !tbaa !6
  %20 = load i32, ptr %7, align 4, !tbaa !11
  %21 = call i32 (ptr, ptr, ...) @fprintf(ptr noundef %15, ptr noundef @.str.62, ptr noundef %16, i32 noundef %18, ptr noundef %19, i32 noundef %20) #15
  call void @perror(ptr noundef @.str.63)
  store ptr null, ptr %5, align 8, !tbaa !50
  br label %22

22:                                               ; preds = %14, %11
  ret void
}