; Function Attrs: mustprogress nofree nounwind uwtable
define internal fastcc void @_ZL19fstWriterMmapSanityPvPKciS1_(ptr noundef %0, i32 noundef range(i32 1037, 2120) %1, ptr noundef %2) unnamed_addr #14 {
  %magicptr = ptrtoint ptr %0 to i64
  switch i64 %magicptr, label %9 [
    i64 -1, label %4
    i64 0, label %4
  ]

4:                                                ; preds = %3, %3
  %5 = load ptr, ptr @stderr, align 8, !tbaa !41
  %6 = tail call ptr @__errno_location() #42
  %7 = load i32, ptr %6, align 4, !tbaa !51
  %8 = tail call i32 (ptr, ptr, ...) @fprintf(ptr noundef %5, ptr noundef nonnull @.str.62, ptr noundef %2, i32 noundef %7, ptr noundef nonnull @.str.3, i32 noundef %1) #43
  tail call void @perror(ptr noundef nonnull @.str.63) #44
  br label %9

9:                                                ; preds = %3, %4
  ret void
}